; Function Attrs: mustprogress nofree norecurse nosync nounwind willreturn memory(read, argmem: readwrite, inaccessiblemem: none) uwtable
define internal noundef i32 @H5T__vlen_mem_seq_getlen(ptr readnone captures(none) %0, ptr noundef readonly captures(none) %1, ptr noundef writeonly captures(none) %2) #6 {
  %4 = load i8, ptr @H5T_init_g, align 1, !tbaa !3, !range !7, !noundef !8
  %5 = trunc nuw i8 %4 to i1
  %6 = load i8, ptr @H5_libterm_g, align 1, !range !7
  %7 = trunc nuw i8 %6 to i1
  %8 = xor i1 %7, true
  %9 = select i1 %5, i1 true, i1 %8
  br i1 %9, label %10, label %11, !prof !9

10:                                               ; preds = %3
  %.sroa.0.0.copyload = load i64, ptr %1, align 1
  store i64 %.sroa.0.0.copyload, ptr %2, align 8, !tbaa !11
  br label %11

11:                                               ; preds = %10, %3
  ret i32 0
}